; Function Attrs: null_pointer_is_valid sspstrong uwtable
define internal range(i32 -268435456, 268435456) i32 @dissect_PDUSessionResourceModifyRequestTransfer_PDU(ptr noundef %0, ptr noundef %1, ptr noundef %2, ptr readnone captures(none) %3) #0 {
  %5 = alloca %struct._asn1_ctx_t, align 8
  call void @llvm.lifetime.start.p0(i64 208, ptr nonnull %5) #12
  call void @asn1_ctx_init(ptr noundef nonnull %5, i32 noundef 1, i1 noundef zeroext true, ptr noundef %1)
  %6 = load i32, ptr @hf_ngap_PDUSessionResourceModifyRequestTransfer_PDU, align 4
  %7 = getelementptr inbounds nuw i8, ptr %5, i64 16
  %8 = load ptr, ptr %7, align 8
  %9 = getelementptr inbounds nuw i8, ptr %8, i64 408
  %10 = load ptr, ptr %9, align 8
  %11 = load i32, ptr @proto_json, align 4
  %12 = call ptr @p_get_proto_data(ptr noundef %10, ptr noundef %8, i32 noundef %11, i32 noundef 0)
  %.not.i = icmp eq ptr %12, null
  br i1 %.not.i, label %dissect_ngap_PDUSessionResourceModifyRequestTransfer.exit, label %13

13:                                               ; preds = %4
  %14 = load ptr, ptr %7, align 8
  %15 = getelementptr inbounds nuw i8, ptr %14, i64 8
  %16 = load ptr, ptr %15, align 8
  call void @col_append_sep_str(ptr noundef %16, i32 noundef 25, ptr noundef null, ptr noundef nonnull @.str.646)
  br label %dissect_ngap_PDUSessionResourceModifyRequestTransfer.exit

dissect_ngap_PDUSessionResourceModifyRequestTransfer.exit: ; preds = %4, %13
  %17 = load i32, ptr @ett_ngap_PDUSessionResourceModifyRequestTransfer, align 4
  %18 = call i32 @dissect_per_sequence(ptr noundef %0, i32 noundef 0, ptr noundef nonnull %5, ptr noundef %2, i32 noundef %6, i32 noundef %17, ptr noundef nonnull @PDUSessionResourceModifyRequestTransfer_sequence)
  %19 = add i32 %18, 7
  %20 = ashr i32 %19, 3
  call void @llvm.lifetime.end.p0(i64 208, ptr nonnull %5) #12
  ret i32 %20
}